target datalayout = "e-m:e-p270:32:32-p271:32:32-p272:64:64-i64:64-i128:128-f80:128-n8:16:32:64-S128"
target triple = "x86_64-pc-linux-gnu"

%class.nmethod = type <{ %class.CodeBlob.base, [2 x i8], i64, i64, ptr, %union.anon, ptr, ptr, ptr, ptr, ptr, ptr, ptr, i16, i16, i32, i32, i32, i32, i32, i32, i32, i16, i16, i16, i16, i16, i16, i32, i32, i32, i32, i32, i8, i8, i8, i8, i8, i8, [2 x i8] }>
%class.CodeBlob.base = type <{ ptr, ptr, ptr, i32, i32, i32, i32, i32, i32, i16, i16, i8, i8 }>
%union.anon = type { ptr }
%class.BarrierSet = type { ptr, %class.FakeRttiSupport, ptr, ptr, ptr, ptr, ptr }
%class.FakeRttiSupport = type <{ i64, i32, [4 x i8] }>
%"struct.Atomic::LoadImpl.68" = type { i8 }
%"struct.Atomic::CmpxchgImpl.66" = type { i8 }
%"struct.Atomic::PlatformLoad.45" = type { i8 }
%"struct.Atomic::PlatformCmpxchg.67" = type { i8 }

@_ZN10BarrierSet12_barrier_setE = external global ptr, align 8
@_ZN9CodeCache16_unloading_cycleE = external global i8, align 1

; Function Attrs: mustprogress nounwind uwtable
define linkonce_odr hidden noundef zeroext i8 @_ZNK6Atomic15PlatformCmpxchgILm1EEclIhEET_PVS3_S3_S3_19atomic_memory_order(ptr noundef nonnull align 1 dereferenceable(1) %0, ptr noundef %1, i8 noundef zeroext %2, i8 noundef zeroext %3, i32 noundef %4) #1 comdat align 2 {
  %6 = alloca ptr, align 8
  %7 = alloca ptr, align 8
  %8 = alloca i8, align 1
  %9 = alloca i8, align 1
  %10 = alloca i32, align 4
  store ptr %0, ptr %6, align 8
  store ptr %1, ptr %7, align 8
  store i8 %2, ptr %8, align 1
  store i8 %3, ptr %9, align 1
  store i32 %4, ptr %10, align 4
  %11 = load i8, ptr %9, align 1
  %12 = load i8, ptr %8, align 1
  %13 = load ptr, ptr %7, align 8
  %14 = call i8 asm sideeffect "lock cmpxchgb $1,($3)", "={ax},q,{ax},r,~{cc},~{memory},~{dirflag},~{fpsr},~{flags}"(i8 %11, i8 %12, ptr %13) #7, !srcloc !67
  store i8 %14, ptr %9, align 1
  %15 = load i8, ptr %9, align 1
  ret i8 %15
}

; Function Attrs: mustprogress nounwind uwtable
define linkonce_odr hidden noundef zeroext i8 @_ZNK6Atomic12PlatformLoadILm1EEclIhEET_PVKS3_(ptr noundef nonnull align 1 dereferenceable(1) %0, ptr noundef %1) #1 comdat align 2 {
  %3 = alloca ptr, align 8
  %4 = alloca ptr, align 8
  store ptr %0, ptr %3, align 8
  store ptr %1, ptr %4, align 8
  %5 = load ptr, ptr %4, align 8
  %6 = load volatile i8, ptr %5, align 1
  ret i8 %6
}

; Function Attrs: mustprogress nounwind uwtable
define linkonce_odr hidden noundef zeroext i8 @_ZNK6Atomic11CmpxchgImplIhhhvEclEPVhhh19atomic_memory_order(ptr noundef nonnull align 1 dereferenceable(1) %0, ptr noundef %1, i8 noundef zeroext %2, i8 noundef zeroext %3, i32 noundef %4) #1 comdat align 2 {
  %6 = alloca ptr, align 8
  %7 = alloca ptr, align 8
  %8 = alloca i8, align 1
  %9 = alloca i8, align 1
  %10 = alloca i32, align 4
  %11 = alloca %"struct.Atomic::PlatformCmpxchg.67", align 1
  store ptr %0, ptr %6, align 8
  store ptr %1, ptr %7, align 8
  store i8 %2, ptr %8, align 1
  store i8 %3, ptr %9, align 1
  store i32 %4, ptr %10, align 4
  %12 = load ptr, ptr %7, align 8
  %13 = load i8, ptr %8, align 1
  %14 = load i8, ptr %9, align 1
  %15 = load i32, ptr %10, align 4
  %16 = call noundef zeroext i8 @_ZNK6Atomic15PlatformCmpxchgILm1EEclIhEET_PVS3_S3_S3_19atomic_memory_order(ptr noundef nonnull align 1 dereferenceable(1) %11, ptr noundef %12, i8 noundef zeroext %13, i8 noundef zeroext %14, i32 noundef %15)
  ret i8 %16
}

; Function Attrs: mustprogress nounwind uwtable
define linkonce_odr hidden noundef zeroext i8 @_ZN16IsUnloadingState19set_unloading_cycleEhh(i8 noundef zeroext %0, i8 noundef zeroext %1) #1 comdat align 2 {
  %3 = alloca i8, align 1
  %4 = alloca i8, align 1
  store i8 %0, ptr %3, align 1
  store i8 %1, ptr %4, align 1
  %5 = load i8, ptr %3, align 1
  %6 = zext i8 %5 to i32
  %7 = and i32 %6, 249
  %8 = trunc i32 %7 to i8
  store i8 %8, ptr %3, align 1
  %9 = load i8, ptr %4, align 1
  %10 = zext i8 %9 to i32
  %11 = shl i32 %10, 1
  %12 = trunc i32 %11 to i8
  %13 = zext i8 %12 to i32
  %14 = load i8, ptr %3, align 1
  %15 = zext i8 %14 to i32
  %16 = or i32 %15, %13
  %17 = trunc i32 %16 to i8
  store i8 %17, ptr %3, align 1
  %18 = load i8, ptr %3, align 1
  ret i8 %18
}

; Function Attrs: mustprogress nounwind uwtable
define linkonce_odr hidden noundef zeroext i8 @_ZN16IsUnloadingState16set_is_unloadingEhb(i8 noundef zeroext %0, i1 noundef zeroext %1) #1 comdat align 2 {
  %3 = alloca i8, align 1
  %4 = alloca i8, align 1
  store i8 %0, ptr %3, align 1
  %5 = zext i1 %1 to i8
  store i8 %5, ptr %4, align 1
  %6 = load i8, ptr %3, align 1
  %7 = zext i8 %6 to i32
  %8 = and i32 %7, 254
  %9 = trunc i32 %8 to i8
  store i8 %9, ptr %3, align 1
  %10 = load i8, ptr %4, align 1
  %11 = trunc i8 %10 to i1
  br i1 %11, label %12, label %17

12:                                               ; preds = %2
  %13 = load i8, ptr %3, align 1
  %14 = zext i8 %13 to i32
  %15 = or i32 %14, 1
  %16 = trunc i32 %15 to i8
  store i8 %16, ptr %3, align 1
  br label %17

17:                                               ; preds = %12, %2
  %18 = load i8, ptr %3, align 1
  ret i8 %18
}

; Function Attrs: mustprogress nounwind uwtable
define linkonce_odr hidden noundef zeroext i8 @_ZNK6Atomic8LoadImplIhNS_12PlatformLoadILm1EEEvEclEPVKh(ptr noundef nonnull align 1 dereferenceable(1) %0, ptr noundef %1) #1 comdat align 2 {
  %3 = alloca ptr, align 8
  %4 = alloca ptr, align 8
  %5 = alloca %"struct.Atomic::PlatformLoad.45", align 1
  store ptr %0, ptr %3, align 8
  store ptr %1, ptr %4, align 8
  %6 = load ptr, ptr %4, align 8
  %7 = call noundef zeroext i8 @_ZNK6Atomic12PlatformLoadILm1EEclIhEET_PVKS3_(ptr noundef nonnull align 1 dereferenceable(1) %5, ptr noundef %6)
  ret i8 %7
}

; Function Attrs: mustprogress nounwind uwtable
define linkonce_odr hidden noundef zeroext i8 @_ZN6Atomic7cmpxchgIhhhEET_PVS1_T0_T1_19atomic_memory_order(ptr noundef %0, i8 noundef zeroext %1, i8 noundef zeroext %2, i32 noundef %3) #1 comdat align 2 {
  %5 = alloca ptr, align 8
  %6 = alloca i8, align 1
  %7 = alloca i8, align 1
  %8 = alloca i32, align 4
  %9 = alloca %"struct.Atomic::CmpxchgImpl.66", align 1
  store ptr %0, ptr %5, align 8
  store i8 %1, ptr %6, align 1
  store i8 %2, ptr %7, align 1
  store i32 %3, ptr %8, align 4
  %10 = load ptr, ptr %5, align 8
  %11 = load i8, ptr %6, align 1
  %12 = load i8, ptr %7, align 1
  %13 = load i32, ptr %8, align 4
  %14 = call noundef zeroext i8 @_ZNK6Atomic11CmpxchgImplIhhhvEclEPVhhh19atomic_memory_order(ptr noundef nonnull align 1 dereferenceable(1) %9, ptr noundef %10, i8 noundef zeroext %11, i8 noundef zeroext %12, i32 noundef %13)
  ret i8 %14
}

; Function Attrs: mustprogress nounwind uwtable
define linkonce_odr hidden noundef zeroext i8 @_ZN16IsUnloadingState6createEbh(i1 noundef zeroext %0, i8 noundef zeroext %1) #1 comdat align 2 {
  %3 = alloca i8, align 1
  %4 = alloca i8, align 1
  %5 = alloca i8, align 1
  %6 = zext i1 %0 to i8
  store i8 %6, ptr %3, align 1
  store i8 %1, ptr %4, align 1
  store i8 0, ptr %5, align 1
  %7 = load i8, ptr %5, align 1
  %8 = load i8, ptr %3, align 1
  %9 = trunc i8 %8 to i1
  %10 = call noundef zeroext i8 @_ZN16IsUnloadingState16set_is_unloadingEhb(i8 noundef zeroext %7, i1 noundef zeroext %9)
  store i8 %10, ptr %5, align 1
  %11 = load i8, ptr %5, align 1
  %12 = load i8, ptr %4, align 1
  %13 = call noundef zeroext i8 @_ZN16IsUnloadingState19set_unloading_cycleEhh(i8 noundef zeroext %11, i8 noundef zeroext %12)
  store i8 %13, ptr %5, align 1
  %14 = load i8, ptr %5, align 1
  ret i8 %14
}

; Function Attrs: mustprogress nounwind uwtable
define linkonce_odr hidden noundef zeroext i8 @_ZN9CodeCache15unloading_cycleEv() #1 comdat align 2 {
  %1 = load i8, ptr @_ZN9CodeCache16_unloading_cycleE, align 1
  ret i8 %1
}

; Function Attrs: mustprogress nounwind uwtable
define linkonce_odr hidden noundef zeroext i8 @_ZN16IsUnloadingState15unloading_cycleEh(i8 noundef zeroext %0) #1 comdat align 2 {
  %2 = alloca i8, align 1
  store i8 %0, ptr %2, align 1
  %3 = load i8, ptr %2, align 1
  %4 = zext i8 %3 to i32
  %5 = and i32 %4, 6
  %6 = ashr i32 %5, 1
  %7 = trunc i32 %6 to i8
  ret i8 %7
}

; Function Attrs: mustprogress nounwind uwtable
define linkonce_odr hidden noundef zeroext i1 @_ZN16IsUnloadingState12is_unloadingEh(i8 noundef zeroext %0) #1 comdat align 2 {
  %2 = alloca i8, align 1
  store i8 %0, ptr %2, align 1
  %3 = load i8, ptr %2, align 1
  %4 = zext i8 %3 to i32
  %5 = and i32 %4, 1
  %6 = ashr i32 %5, 0
  %7 = icmp eq i32 %6, 1
  ret i1 %7
}

; Function Attrs: mustprogress nounwind uwtable
define linkonce_odr hidden noundef zeroext i8 @_ZN6Atomic4loadIhEET_PVKS1_(ptr noundef %0) #1 comdat align 2 {
  %2 = alloca ptr, align 8
  %3 = alloca %"struct.Atomic::LoadImpl.68", align 1
  store ptr %0, ptr %2, align 8
  %4 = load ptr, ptr %2, align 8
  %5 = call noundef zeroext i8 @_ZNK6Atomic8LoadImplIhNS_12PlatformLoadILm1EEEvEclEPVKh(ptr noundef nonnull align 1 dereferenceable(1) %3, ptr noundef %4)
  ret i8 %5
}

; Function Attrs: mustprogress nounwind uwtable
define linkonce_odr hidden noundef ptr @_ZN10BarrierSet19barrier_set_nmethodEv(ptr noundef nonnull align 8 dereferenceable(64) %0) #1 comdat align 2 {
  %2 = alloca ptr, align 8
  store ptr %0, ptr %2, align 8
  %3 = load ptr, ptr %2, align 8
  %4 = getelementptr inbounds %class.BarrierSet, ptr %3, i32 0, i32 5
  %5 = load ptr, ptr %4, align 8
  ret ptr %5
}

; Function Attrs: mustprogress nounwind uwtable
define linkonce_odr hidden noundef ptr @_ZN10BarrierSet11barrier_setEv() #1 comdat align 2 {
  %1 = load ptr, ptr @_ZN10BarrierSet12_barrier_setE, align 8
  ret ptr %1
}

; Function Attrs: mustprogress nounwind uwtable
define hidden noundef zeroext i1 @_ZN7nmethod12is_unloadingEv(ptr noundef nonnull align 8 dereferenceable(214) %0) #1 align 2 {
  %2 = alloca i1, align 1
  %3 = alloca ptr, align 8
  %4 = alloca i8, align 1
  %5 = alloca i8, align 1
  %6 = alloca i8, align 1
  %7 = alloca i8, align 1
  %8 = alloca i8, align 1
  %9 = alloca i8, align 1
  store ptr %0, ptr %3, align 8
  %10 = load ptr, ptr %3, align 8
  %11 = getelementptr inbounds %class.nmethod, ptr %10, i32 0, i32 35
  %12 = call noundef zeroext i8 @_ZN6Atomic4loadIhEET_PVKS1_(ptr noundef %11)
  store i8 %12, ptr %4, align 1
  %13 = load i8, ptr %4, align 1
  %14 = call noundef zeroext i1 @_ZN16IsUnloadingState12is_unloadingEh(i8 noundef zeroext %13)
  %15 = zext i1 %14 to i8
  store i8 %15, ptr %5, align 1
  %16 = load i8, ptr %5, align 1
  %17 = trunc i8 %16 to i1
  br i1 %17, label %18, label %19

18:                                               ; preds = %1
  store i1 true, ptr %2, align 1
  br label %52

19:                                               ; preds = %1
  %20 = load i8, ptr %4, align 1
  %21 = call noundef zeroext i8 @_ZN16IsUnloadingState15unloading_cycleEh(i8 noundef zeroext %20)
  store i8 %21, ptr %6, align 1
  %22 = call noundef zeroext i8 @_ZN9CodeCache15unloading_cycleEv()
  store i8 %22, ptr %7, align 1
  %23 = load i8, ptr %6, align 1
  %24 = zext i8 %23 to i32
  %25 = load i8, ptr %7, align 1
  %26 = zext i8 %25 to i32
  %27 = icmp eq i32 %24, %26
  br i1 %27, label %28, label %29

28:                                               ; preds = %19
  store i1 false, ptr %2, align 1
  br label %52

29:                                               ; preds = %19
  %30 = load i8, ptr %7, align 1
  store i8 %30, ptr %6, align 1
  %31 = call noundef zeroext i1 @_ZN20IsUnloadingBehaviour12is_unloadingEP7nmethod(ptr noundef %10)
  %32 = zext i1 %31 to i8
  store i8 %32, ptr %5, align 1
  %33 = load i8, ptr %5, align 1
  %34 = trunc i8 %33 to i1
  %35 = load i8, ptr %6, align 1
  %36 = call noundef zeroext i8 @_ZN16IsUnloadingState6createEbh(i1 noundef zeroext %34, i8 noundef zeroext %35)
  store i8 %36, ptr %8, align 1
  %37 = getelementptr inbounds %class.nmethod, ptr %10, i32 0, i32 35
  %38 = load i8, ptr %4, align 1
  %39 = load i8, ptr %8, align 1
  %40 = call noundef zeroext i8 @_ZN6Atomic7cmpxchgIhhhEET_PVS1_T0_T1_19atomic_memory_order(ptr noundef %37, i8 noundef zeroext %38, i8 noundef zeroext %39, i32 noundef 0)
  store i8 %40, ptr %9, align 1
  %41 = load i8, ptr %9, align 1
  %42 = zext i8 %41 to i32
  %43 = load i8, ptr %4, align 1
  %44 = zext i8 %43 to i32
  %45 = icmp eq i32 %42, %44
  br i1 %45, label %46, label %49

46:                                               ; preds = %29
  %47 = load i8, ptr %5, align 1
  %48 = trunc i8 %47 to i1
  store i1 %48, ptr %2, align 1
  br label %52

49:                                               ; preds = %29
  %50 = load i8, ptr %9, align 1
  %51 = call noundef zeroext i1 @_ZN16IsUnloadingState12is_unloadingEh(i8 noundef zeroext %50)
  store i1 %51, ptr %2, align 1
  br label %52

52:                                               ; preds = %49, %46, %28, %18
  %53 = load i1, ptr %2, align 1
  ret i1 %53
}

; Function Attrs: mustprogress nounwind uwtable
define hidden void @_ZN7nmethod12do_unloadingEb(ptr noundef nonnull align 8 dereferenceable(214) %0, i1 noundef zeroext %1) #1 align 2 {
  %3 = alloca ptr, align 8
  %4 = alloca i8, align 1
  %5 = alloca ptr, align 8
  store ptr %0, ptr %3, align 8
  %6 = zext i1 %1 to i8
  store i8 %6, ptr %4, align 1
  %7 = load ptr, ptr %3, align 8
  %8 = call noundef zeroext i1 @_ZN7nmethod12is_unloadingEv(ptr noundef nonnull align 8 dereferenceable(214) %7)
  br i1 %8, label %9, label %10

9:                                                ; preds = %2
  call void @_ZN7nmethod6unlinkEv(ptr noundef nonnull align 8 dereferenceable(214) %7)
  br label %20

10:                                               ; preds = %2
  %11 = load i8, ptr %4, align 1
  %12 = trunc i8 %11 to i1
  call void @_ZN7nmethod21unload_nmethod_cachesEb(ptr noundef nonnull align 8 dereferenceable(214) %7, i1 noundef zeroext %12)
  %13 = call noundef ptr @_ZN10BarrierSet11barrier_setEv()
  %14 = call noundef ptr @_ZN10BarrierSet19barrier_set_nmethodEv(ptr noundef nonnull align 8 dereferenceable(64) %13)
  store ptr %14, ptr %5, align 8
  %15 = load ptr, ptr %5, align 8
  %16 = icmp ne ptr %15, null
  br i1 %16, label %17, label %19

17:                                               ; preds = %10
  %18 = load ptr, ptr %5, align 8
  call void @_ZN17BarrierSetNMethod6disarmEP7nmethod(ptr noundef nonnull align 8 dereferenceable(12) %18, ptr noundef %7)
  br label %19

19:                                               ; preds = %17, %10
  br label %20

20:                                               ; preds = %19, %9
  ret void
}