; Function Attrs: mustprogress nounwind uwtable
define hidden void @_ZN7nmethod12do_unloadingEb(ptr noundef nonnull align 8 dereferenceable(214) %0, i1 noundef zeroext %1) local_unnamed_addr #0 align 2 {
  %3 = getelementptr inbounds i8, ptr %0, i64 210
  %4 = load volatile i8, ptr %3, align 2
  %5 = and i8 %4, 1
  %.not.i = icmp eq i8 %5, 0
  br i1 %.not.i, label %6, label %_ZN7nmethod12is_unloadingEv.exit.thread

6:                                                ; preds = %2
  %7 = lshr exact i8 %4, 1
  %8 = and i8 %7, 3
  %9 = load i8, ptr @_ZN9CodeCache16_unloading_cycleE, align 1
  %10 = icmp eq i8 %8, %9
  br i1 %10, label %_ZN7nmethod12is_unloadingEv.exit.thread4, label %11

11:                                               ; preds = %6
  %12 = tail call noundef zeroext i1 @_ZN20IsUnloadingBehaviour12is_unloadingEP7nmethod(ptr noundef nonnull %0) #23
  %masksel.i.i.i = zext i1 %12 to i8
  %13 = shl i8 %9, 1
  %14 = or disjoint i8 %13, %masksel.i.i.i
  %15 = tail call noundef i8 asm sideeffect "lock cmpxchgb $1,($3)", "={ax},q,{ax},r,~{cc},~{memory},~{dirflag},~{fpsr},~{flags}"(i8 %14, i8 %4, ptr nonnull %3) #23, !srcloc !40
  %16 = icmp eq i8 %15, %4
  br i1 %16, label %_ZN7nmethod12is_unloadingEv.exit, label %17

17:                                               ; preds = %11
  %18 = and i8 %15, 1
  %.not6 = icmp eq i8 %18, 0
  br i1 %.not6, label %_ZN7nmethod12is_unloadingEv.exit.thread4, label %_ZN7nmethod12is_unloadingEv.exit.thread

_ZN7nmethod12is_unloadingEv.exit:                 ; preds = %11
  br i1 %12, label %_ZN7nmethod12is_unloadingEv.exit.thread, label %_ZN7nmethod12is_unloadingEv.exit.thread4

_ZN7nmethod12is_unloadingEv.exit.thread:          ; preds = %2, %17, %_ZN7nmethod12is_unloadingEv.exit
  tail call void @_ZN7nmethod6unlinkEv(ptr noundef nonnull align 8 dereferenceable(214) %0)
  br label %23

_ZN7nmethod12is_unloadingEv.exit.thread4:         ; preds = %6, %17, %_ZN7nmethod12is_unloadingEv.exit
  tail call void @_ZN7nmethod21unload_nmethod_cachesEb(ptr noundef nonnull align 8 dereferenceable(214) %0, i1 noundef zeroext %1)
  %19 = load ptr, ptr @_ZN10BarrierSet12_barrier_setE, align 8
  %20 = getelementptr inbounds i8, ptr %19, i64 48
  %21 = load ptr, ptr %20, align 8
  %.not = icmp eq ptr %21, null
  br i1 %.not, label %23, label %22

22:                                               ; preds = %_ZN7nmethod12is_unloadingEv.exit.thread4
  tail call void @_ZN17BarrierSetNMethod6disarmEP7nmethod(ptr noundef nonnull align 8 dereferenceable(12) %21, ptr noundef nonnull %0) #23
  br label %23

23:                                               ; preds = %_ZN7nmethod12is_unloadingEv.exit.thread4, %22, %_ZN7nmethod12is_unloadingEv.exit.thread
  ret void
}